; ModuleID = '58/999.c'
source_filename = "58/999.c"
target datalayout = "e-m:e-p270:32:32-p271:32:32-p272:64:64-i64:64-f80:128-n8:16:32:64-S128"
target triple = "x86_64-pc-linux-gnu"

@.str = private unnamed_addr constant [4 x i8] c"%d\0A\00", align 1
@.str.1 = private unnamed_addr constant [3 x i8] c"1\0A\00", align 1
@.str.2 = private unnamed_addr constant [3 x i8] c"0\0A\00", align 1

; Function Attrs: noinline nounwind uwtable
define dso_local i32 @main() #0 {
  %1 = alloca i32, align 4
  %2 = alloca i32, align 4
  %3 = alloca i32, align 4
  %4 = alloca i32, align 4
  %5 = alloca i32, align 4
  %6 = alloca i32, align 4
  %7 = alloca [90 x i8], align 16
  store i32 0, i32* %1, align 4
  store i32 0, i32* %4, align 4
  %8 = call i32 (i8*, ...) @__isoc99_scanf(i8* getelementptr inbounds ([4 x i8], [4 x i8]* @.str, i64 0, i64 0), i32* %2)
  store i32 0, i32* %3, align 4
  br label %9

9:                                                ; preds = %111, %0
  %10 = load i32, i32* %3, align 4
  %11 = load i32, i32* %2, align 4
  %12 = icmp slt i32 %10, %11
  br i1 %12, label %13, label %114

13:                                               ; preds = %9
  %14 = getelementptr inbounds [90 x i8], [90 x i8]* %7, i64 0, i64 0
  %15 = call i32 (i8*, ...) bitcast (i32 (...)* @gets to i32 (i8*, ...)*)(i8* %14)
  %16 = getelementptr inbounds [90 x i8], [90 x i8]* %7, i64 0, i64 0
  %17 = call i64 @strlen(i8* %16) #3
  %18 = trunc i64 %17 to i32
  store i32 %18, i32* %6, align 4
  store i32 0, i32* %5, align 4
  br label %19

19:                                               ; preds = %75, %13
  %20 = load i32, i32* %5, align 4
  %21 = load i32, i32* %6, align 4
  %22 = icmp slt i32 %20, %21
  br i1 %22, label %23, label %78

23:                                               ; preds = %19
  %24 = load i32, i32* %5, align 4
  %25 = sext i32 %24 to i64
  %26 = getelementptr inbounds [90 x i8], [90 x i8]* %7, i64 0, i64 %25
  %27 = load i8, i8* %26, align 1
  %28 = sext i8 %27 to i32
  %29 = icmp sge i32 %28, 48
  br i1 %29, label %30, label %37

30:                                               ; preds = %23
  %31 = load i32, i32* %5, align 4
  %32 = sext i32 %31 to i64
  %33 = getelementptr inbounds [90 x i8], [90 x i8]* %7, i64 0, i64 %32
  %34 = load i8, i8* %33, align 1
  %35 = sext i8 %34 to i32
  %36 = icmp sle i32 %35, 57
  br i1 %36, label %72, label %37

37:                                               ; preds = %30, %23
  %38 = load i32, i32* %5, align 4
  %39 = sext i32 %38 to i64
  %40 = getelementptr inbounds [90 x i8], [90 x i8]* %7, i64 0, i64 %39
  %41 = load i8, i8* %40, align 1
  %42 = sext i8 %41 to i32
  %43 = icmp sge i32 %42, 65
  br i1 %43, label %44, label %51

44:                                               ; preds = %37
  %45 = load i32, i32* %5, align 4
  %46 = sext i32 %45 to i64
  %47 = getelementptr inbounds [90 x i8], [90 x i8]* %7, i64 0, i64 %46
  %48 = load i8, i8* %47, align 1
  %49 = sext i8 %48 to i32
  %50 = icmp sle i32 %49, 90
  br i1 %50, label %72, label %51

51:                                               ; preds = %44, %37
  %52 = load i32, i32* %5, align 4
  %53 = sext i32 %52 to i64
  %54 = getelementptr inbounds [90 x i8], [90 x i8]* %7, i64 0, i64 %53
  %55 = load i8, i8* %54, align 1
  %56 = sext i8 %55 to i32
  %57 = icmp sge i32 %56, 97
  br i1 %57, label %58, label %65

58:                                               ; preds = %51
  %59 = load i32, i32* %5, align 4
  %60 = sext i32 %59 to i64
  %61 = getelementptr inbounds [90 x i8], [90 x i8]* %7, i64 0, i64 %60
  %62 = load i8, i8* %61, align 1
  %63 = sext i8 %62 to i32
  %64 = icmp sle i32 %63, 122
  br i1 %64, label %72, label %65

65:                                               ; preds = %58, %51
  %66 = load i32, i32* %5, align 4
  %67 = sext i32 %66 to i64
  %68 = getelementptr inbounds [90 x i8], [90 x i8]* %7, i64 0, i64 %67
  %69 = load i8, i8* %68, align 1
  %70 = sext i8 %69 to i32
  %71 = icmp eq i32 %70, 95
  br i1 %71, label %72, label %73

72:                                               ; preds = %65, %58, %44, %30
  store i32 0, i32* %4, align 4
  br label %74

73:                                               ; preds = %65
  store i32 1, i32* %4, align 4
  br label %78

74:                                               ; preds = %72
  br label %75

75:                                               ; preds = %74
  %76 = load i32, i32* %5, align 4
  %77 = add nsw i32 %76, 1
  store i32 %77, i32* %5, align 4
  br label %19

78:                                               ; preds = %73, %19
  %79 = load i32, i32* %4, align 4
  %80 = icmp eq i32 %79, 0
  br i1 %80, label %81, label %108

81:                                               ; preds = %78
  %82 = getelementptr inbounds [90 x i8], [90 x i8]* %7, i64 0, i64 0
  %83 = load i8, i8* %82, align 16
  %84 = sext i8 %83 to i32
  %85 = icmp eq i32 %84, 95
  br i1 %85, label %106, label %86

86:                                               ; preds = %81
  %87 = getelementptr inbounds [90 x i8], [90 x i8]* %7, i64 0, i64 0
  %88 = load i8, i8* %87, align 16
  %89 = sext i8 %88 to i32
  %90 = icmp sge i32 %89, 65
  br i1 %90, label %91, label %96

91:                                               ; preds = %86
  %92 = getelementptr inbounds [90 x i8], [90 x i8]* %7, i64 0, i64 0
  %93 = load i8, i8* %92, align 16
  %94 = sext i8 %93 to i32
  %95 = icmp sle i32 %94, 90
  br i1 %95, label %106, label %96

96:                                               ; preds = %91, %86
  %97 = getelementptr inbounds [90 x i8], [90 x i8]* %7, i64 0, i64 0
  %98 = load i8, i8* %97, align 16
  %99 = sext i8 %98 to i32
  %100 = icmp sge i32 %99, 97
  br i1 %100, label %101, label %108

101:                                              ; preds = %96
  %102 = getelementptr inbounds [90 x i8], [90 x i8]* %7, i64 0, i64 0
  %103 = load i8, i8* %102, align 16
  %104 = sext i8 %103 to i32
  %105 = icmp sle i32 %104, 122
  br i1 %105, label %106, label %108

106:                                              ; preds = %101, %91, %81
  %107 = call i32 (i8*, ...) @printf(i8* getelementptr inbounds ([3 x i8], [3 x i8]* @.str.1, i64 0, i64 0))
  br label %110

108:                                              ; preds = %101, %96, %78
  %109 = call i32 (i8*, ...) @printf(i8* getelementptr inbounds ([3 x i8], [3 x i8]* @.str.2, i64 0, i64 0))
  br label %110

110:                                              ; preds = %108, %106
  br label %111

111:                                              ; preds = %110
  %112 = load i32, i32* %3, align 4
  %113 = add nsw i32 %112, 1
  store i32 %113, i32* %3, align 4
  br label %9

114:                                              ; preds = %9
  ret i32 0
}

declare dso_local i32 @__isoc99_scanf(i8*, ...) #1

declare dso_local i32 @gets(...) #1

; Function Attrs: nounwind readonly
declare dso_local i64 @strlen(i8*) #2

declare dso_local i32 @printf(i8*, ...) #1


!llvm.module.flags = !{!0}
!llvm.ident = !{!1}

!0 = !{i32 1, !"wchar_size", i32 4}
!1 = !{!"clang version 10.0.0-4ubuntu1 "}
